
ws2812b.elf:     file format elf32-avr

Sections:
Idx Name          Size      VMA       LMA       File off  Algn
  0 .text         00000248  00000000  00000000  00000074  2**1
                  CONTENTS, ALLOC, LOAD, READONLY, CODE
  1 .data         00000372  00800060  00000248  000002bc  2**0
                  CONTENTS, ALLOC, LOAD, DATA
  2 .stab         000006cc  00000000  00000000  00000630  2**2
                  CONTENTS, READONLY, DEBUGGING
  3 .stabstr      00000097  00000000  00000000  00000cfc  2**0
                  CONTENTS, READONLY, DEBUGGING

Disassembly of section .text:

00000000 <__vectors>:
   0:	0c 94 2a 00 	jmp	0x54	; 0x54 <__ctors_end>
   4:	0c 94 3f 00 	jmp	0x7e	; 0x7e <__bad_interrupt>
   8:	0c 94 3f 00 	jmp	0x7e	; 0x7e <__bad_interrupt>
   c:	0c 94 3f 00 	jmp	0x7e	; 0x7e <__bad_interrupt>
  10:	0c 94 3f 00 	jmp	0x7e	; 0x7e <__bad_interrupt>
  14:	0c 94 3f 00 	jmp	0x7e	; 0x7e <__bad_interrupt>
  18:	0c 94 3f 00 	jmp	0x7e	; 0x7e <__bad_interrupt>
  1c:	0c 94 3f 00 	jmp	0x7e	; 0x7e <__bad_interrupt>
  20:	0c 94 3f 00 	jmp	0x7e	; 0x7e <__bad_interrupt>
  24:	0c 94 3f 00 	jmp	0x7e	; 0x7e <__bad_interrupt>
  28:	0c 94 3f 00 	jmp	0x7e	; 0x7e <__bad_interrupt>
  2c:	0c 94 3f 00 	jmp	0x7e	; 0x7e <__bad_interrupt>
  30:	0c 94 3f 00 	jmp	0x7e	; 0x7e <__bad_interrupt>
  34:	0c 94 3f 00 	jmp	0x7e	; 0x7e <__bad_interrupt>
  38:	0c 94 3f 00 	jmp	0x7e	; 0x7e <__bad_interrupt>
  3c:	0c 94 3f 00 	jmp	0x7e	; 0x7e <__bad_interrupt>
  40:	0c 94 3f 00 	jmp	0x7e	; 0x7e <__bad_interrupt>
  44:	0c 94 3f 00 	jmp	0x7e	; 0x7e <__bad_interrupt>
  48:	0c 94 3f 00 	jmp	0x7e	; 0x7e <__bad_interrupt>
  4c:	0c 94 3f 00 	jmp	0x7e	; 0x7e <__bad_interrupt>
  50:	0c 94 3f 00 	jmp	0x7e	; 0x7e <__bad_interrupt>

00000054 <__ctors_end>:
  54:	11 24       	eor	r1, r1
  56:	1f be       	out	0x3f, r1	; 63
  58:	cf e5       	ldi	r28, 0x5F	; 95
  5a:	d4 e0       	ldi	r29, 0x04	; 4
  5c:	de bf       	out	0x3e, r29	; 62
  5e:	cd bf       	out	0x3d, r28	; 61

00000060 <__do_copy_data>:
  60:	13 e0       	ldi	r17, 0x03	; 3
  62:	a0 e6       	ldi	r26, 0x60	; 96
  64:	b0 e0       	ldi	r27, 0x00	; 0
  66:	e8 e4       	ldi	r30, 0x48	; 72
  68:	f2 e0       	ldi	r31, 0x02	; 2
  6a:	02 c0       	rjmp	.+4      	; 0x70 <__do_copy_data+0x10>
  6c:	05 90       	lpm	r0, Z+
  6e:	0d 92       	st	X+, r0
  70:	a2 3d       	cpi	r26, 0xD2	; 210
  72:	b1 07       	cpc	r27, r17
  74:	d9 f7       	brne	.-10     	; 0x6c <__do_copy_data+0xc>
  76:	0e 94 1a 01 	call	0x234	; 0x234 <main>
  7a:	0c 94 22 01 	jmp	0x244	; 0x244 <_exit>

0000007e <__bad_interrupt>:
  7e:	0c 94 00 00 	jmp	0	; 0x0 <__vectors>

00000082 <send0>:
  82:	8f ef       	ldi	r24, 0xFF	; 255
  84:	82 bb       	out	0x12, r24	; 18
  86:	12 ba       	out	0x12, r1	; 18
  88:	08 95       	ret

0000008a <send1>:
  8a:	8f ef       	ldi	r24, 0xFF	; 255
  8c:	82 bb       	out	0x12, r24	; 18
  8e:	85 e0       	ldi	r24, 0x05	; 5
  90:	8a 95       	dec	r24
  92:	f1 f7       	brne	.-4      	; 0x90 <send1+0x6>
  94:	00 00       	nop
  96:	12 ba       	out	0x12, r1	; 18
  98:	08 95       	ret

0000009a <send>:
  9a:	0f 93       	push	r16
  9c:	1f 93       	push	r17
  9e:	df 93       	push	r29
  a0:	cf 93       	push	r28
  a2:	0f 92       	push	r0
  a4:	cd b7       	in	r28, 0x3d	; 61
  a6:	de b7       	in	r29, 0x3e	; 62
  a8:	19 82       	std	Y+1, r1	; 0x01
  aa:	82 95       	swap	r24
  ac:	8f 70       	andi	r24, 0x0F	; 15
  ae:	08 2f       	mov	r16, r24
  b0:	10 e0       	ldi	r17, 0x00	; 0
  b2:	98 01       	movw	r18, r16
  b4:	2a 7a       	andi	r18, 0xAA	; 170
  b6:	30 70       	andi	r19, 0x00	; 0
  b8:	35 95       	asr	r19
  ba:	27 95       	ror	r18
  bc:	05 75       	andi	r16, 0x55	; 85
  be:	10 70       	andi	r17, 0x00	; 0
  c0:	00 0f       	add	r16, r16
  c2:	11 1f       	adc	r17, r17
  c4:	02 2b       	or	r16, r18
  c6:	10 e0       	ldi	r17, 0x00	; 0
  c8:	c8 01       	movw	r24, r16
  ca:	83 73       	andi	r24, 0x33	; 51
  cc:	90 70       	andi	r25, 0x00	; 0
  ce:	88 0f       	add	r24, r24
  d0:	99 1f       	adc	r25, r25
  d2:	88 0f       	add	r24, r24
  d4:	99 1f       	adc	r25, r25
  d6:	0c 7c       	andi	r16, 0xCC	; 204
  d8:	10 70       	andi	r17, 0x00	; 0
  da:	15 95       	asr	r17
  dc:	07 95       	ror	r16
  de:	15 95       	asr	r17
  e0:	07 95       	ror	r16
  e2:	08 2b       	or	r16, r24
  e4:	02 95       	swap	r16
  e6:	89 81       	ldd	r24, Y+1	; 0x01
  e8:	10 e0       	ldi	r17, 0x00	; 0
  ea:	11 c0       	rjmp	.+34     	; 0x10e <send+0x74>
  ec:	89 81       	ldd	r24, Y+1	; 0x01
  ee:	98 01       	movw	r18, r16
  f0:	02 c0       	rjmp	.+4      	; 0xf6 <send+0x5c>
  f2:	35 95       	asr	r19
  f4:	27 95       	ror	r18
  f6:	8a 95       	dec	r24
  f8:	e2 f7       	brpl	.-8      	; 0xf2 <send+0x58>
  fa:	20 ff       	sbrs	r18, 0
  fc:	03 c0       	rjmp	.+6      	; 0x104 <send+0x6a>
  fe:	0e 94 45 00 	call	0x8a	; 0x8a <send1>
 102:	02 c0       	rjmp	.+4      	; 0x108 <send+0x6e>
 104:	0e 94 41 00 	call	0x82	; 0x82 <send0>
 108:	89 81       	ldd	r24, Y+1	; 0x01
 10a:	8f 5f       	subi	r24, 0xFF	; 255
 10c:	89 83       	std	Y+1, r24	; 0x01
 10e:	89 81       	ldd	r24, Y+1	; 0x01
 110:	88 30       	cpi	r24, 0x08	; 8
 112:	60 f3       	brcs	.-40     	; 0xec <send+0x52>
 114:	0f 90       	pop	r0
 116:	cf 91       	pop	r28
 118:	df 91       	pop	r29
 11a:	1f 91       	pop	r17
 11c:	0f 91       	pop	r16
 11e:	08 95       	ret

00000120 <showRainbowShift>:
 120:	cf 92       	push	r12
 122:	df 92       	push	r13
 124:	ef 92       	push	r14
 126:	ff 92       	push	r15
 128:	0f 93       	push	r16
 12a:	1f 93       	push	r17
 12c:	cf 93       	push	r28
 12e:	df 93       	push	r29
 130:	75 e7       	ldi	r23, 0x75	; 117
 132:	e7 2e       	mov	r14, r23
 134:	70 e0       	ldi	r23, 0x00	; 0
 136:	f7 2e       	mov	r15, r23
 138:	00 e0       	ldi	r16, 0x00	; 0
 13a:	10 e0       	ldi	r17, 0x00	; 0
 13c:	65 e1       	ldi	r22, 0x15	; 21
 13e:	c6 2e       	mov	r12, r22
 140:	d1 2c       	mov	r13, r1
 142:	20 c0       	rjmp	.+64     	; 0x184 <showRainbowShift+0x64>
 144:	89 81       	ldd	r24, Y+1	; 0x01
 146:	0e 94 4d 00 	call	0x9a	; 0x9a <send>
 14a:	88 81       	ld	r24, Y
 14c:	0e 94 4d 00 	call	0x9a	; 0x9a <send>
 150:	8a 81       	ldd	r24, Y+2	; 0x02
 152:	0e 94 4d 00 	call	0x9a	; 0x9a <send>
 156:	23 96       	adiw	r28, 0x03	; 3
 158:	ce 15       	cp	r28, r14
 15a:	df 05       	cpc	r29, r15
 15c:	99 f7       	brne	.-26     	; 0x144 <showRainbowShift+0x24>
 15e:	8f e7       	ldi	r24, 0x7F	; 127
 160:	9b e8       	ldi	r25, 0x8B	; 139
 162:	a8 e0       	ldi	r26, 0x08	; 8
 164:	81 50       	subi	r24, 0x01	; 1
 166:	90 40       	sbci	r25, 0x00	; 0
 168:	a0 40       	sbci	r26, 0x00	; 0
 16a:	e1 f7       	brne	.-8      	; 0x164 <showRainbowShift+0x44>
 16c:	00 c0       	rjmp	.+0      	; 0x16e <showRainbowShift+0x4e>
 16e:	00 00       	nop
 170:	0f 5f       	subi	r16, 0xFF	; 255
 172:	1f 4f       	sbci	r17, 0xFF	; 255
 174:	55 e1       	ldi	r21, 0x15	; 21
 176:	e5 2e       	mov	r14, r21
 178:	f1 2c       	mov	r15, r1
 17a:	ec 0e       	add	r14, r28
 17c:	fd 1e       	adc	r15, r29
 17e:	08 30       	cpi	r16, 0x08	; 8
 180:	11 05       	cpc	r17, r1
 182:	51 f0       	breq	.+20     	; 0x198 <showRainbowShift+0x78>
 184:	0c 9d       	mul	r16, r12
 186:	e0 01       	movw	r28, r0
 188:	0d 9d       	mul	r16, r13
 18a:	d0 0d       	add	r29, r0
 18c:	1c 9d       	mul	r17, r12
 18e:	d0 0d       	add	r29, r0
 190:	11 24       	eor	r1, r1
 192:	c0 5a       	subi	r28, 0xA0	; 160
 194:	df 4f       	sbci	r29, 0xFF	; 255
 196:	d6 cf       	rjmp	.-84     	; 0x144 <showRainbowShift+0x24>
 198:	df 91       	pop	r29
 19a:	cf 91       	pop	r28
 19c:	1f 91       	pop	r17
 19e:	0f 91       	pop	r16
 1a0:	ff 90       	pop	r15
 1a2:	ef 90       	pop	r14
 1a4:	df 90       	pop	r13
 1a6:	cf 90       	pop	r12
 1a8:	08 95       	ret

000001aa <showRainbowFill>:
 1aa:	cf 92       	push	r12
 1ac:	df 92       	push	r13
 1ae:	ef 92       	push	r14
 1b0:	ff 92       	push	r15
 1b2:	0f 93       	push	r16
 1b4:	1f 93       	push	r17
 1b6:	cf 93       	push	r28
 1b8:	df 93       	push	r29
 1ba:	ad e1       	ldi	r26, 0x1D	; 29
 1bc:	ea 2e       	mov	r14, r26
 1be:	a1 e0       	ldi	r26, 0x01	; 1
 1c0:	fa 2e       	mov	r15, r26
 1c2:	00 e0       	ldi	r16, 0x00	; 0
 1c4:	10 e0       	ldi	r17, 0x00	; 0
 1c6:	f5 e1       	ldi	r31, 0x15	; 21
 1c8:	cf 2e       	mov	r12, r31
 1ca:	d1 2c       	mov	r13, r1
 1cc:	20 c0       	rjmp	.+64     	; 0x20e <showRainbowFill+0x64>
 1ce:	89 81       	ldd	r24, Y+1	; 0x01
 1d0:	0e 94 4d 00 	call	0x9a	; 0x9a <send>
 1d4:	88 81       	ld	r24, Y
 1d6:	0e 94 4d 00 	call	0x9a	; 0x9a <send>
 1da:	8a 81       	ldd	r24, Y+2	; 0x02
 1dc:	0e 94 4d 00 	call	0x9a	; 0x9a <send>
 1e0:	23 96       	adiw	r28, 0x03	; 3
 1e2:	ce 15       	cp	r28, r14
 1e4:	df 05       	cpc	r29, r15
 1e6:	99 f7       	brne	.-26     	; 0x1ce <showRainbowFill+0x24>
 1e8:	8f ef       	ldi	r24, 0xFF	; 255
 1ea:	90 e7       	ldi	r25, 0x70	; 112
 1ec:	a2 e0       	ldi	r26, 0x02	; 2
 1ee:	81 50       	subi	r24, 0x01	; 1
 1f0:	90 40       	sbci	r25, 0x00	; 0
 1f2:	a0 40       	sbci	r26, 0x00	; 0
 1f4:	e1 f7       	brne	.-8      	; 0x1ee <showRainbowFill+0x44>
 1f6:	00 c0       	rjmp	.+0      	; 0x1f8 <showRainbowFill+0x4e>
 1f8:	00 00       	nop
 1fa:	0f 5f       	subi	r16, 0xFF	; 255
 1fc:	1f 4f       	sbci	r17, 0xFF	; 255
 1fe:	e5 e1       	ldi	r30, 0x15	; 21
 200:	ee 2e       	mov	r14, r30
 202:	f1 2c       	mov	r15, r1
 204:	ec 0e       	add	r14, r28
 206:	fd 1e       	adc	r15, r29
 208:	02 32       	cpi	r16, 0x22	; 34
 20a:	11 05       	cpc	r17, r1
 20c:	51 f0       	breq	.+20     	; 0x222 <showRainbowFill+0x78>
 20e:	0c 9d       	mul	r16, r12
 210:	e0 01       	movw	r28, r0
 212:	0d 9d       	mul	r16, r13
 214:	d0 0d       	add	r29, r0
 216:	1c 9d       	mul	r17, r12
 218:	d0 0d       	add	r29, r0
 21a:	11 24       	eor	r1, r1
 21c:	c8 5f       	subi	r28, 0xF8	; 248
 21e:	de 4f       	sbci	r29, 0xFE	; 254
 220:	d6 cf       	rjmp	.-84     	; 0x1ce <showRainbowFill+0x24>
 222:	df 91       	pop	r29
 224:	cf 91       	pop	r28
 226:	1f 91       	pop	r17
 228:	0f 91       	pop	r16
 22a:	ff 90       	pop	r15
 22c:	ef 90       	pop	r14
 22e:	df 90       	pop	r13
 230:	cf 90       	pop	r12
 232:	08 95       	ret

00000234 <main>:
 234:	8f ef       	ldi	r24, 0xFF	; 255
 236:	81 bb       	out	0x11, r24	; 17
 238:	f8 94       	cli
 23a:	0e 94 90 00 	call	0x120	; 0x120 <showRainbowShift>
 23e:	0e 94 d5 00 	call	0x1aa	; 0x1aa <showRainbowFill>
 242:	fb cf       	rjmp	.-10     	; 0x23a <main+0x6>

00000244 <_exit>:
 244:	f8 94       	cli

00000246 <__stop_program>:
 246:	ff cf       	rjmp	.-2      	; 0x246 <__stop_program>
